#include <math.h>
#include <stdio.h>
#include <stdlib.h>
#include <string.h>

main()
{int i,j,k,m,n,t;
 char a[50];char b[50];
 scanf("%s %s",a,b);
 for(i=0;;i++)
  {for(j=0;;j++)
    {if(a[i]==b[j])
       {t=j;m=i;n=j;
        for(m=i,n=j;;)
         {if(a[m]==b[n])
             {m++;n++;}
          if((m-i)==(strlen(a))) break;
         }
       }
      else continue;
      
      if((m-i)==(strlen(a))) break;
    
     }
     if((m-i)==(strlen(a))) break;
  }
  printf("%d",t);
} 
