; ModuleID = '45/2660.c'
source_filename = "45/2660.c"
target datalayout = "e-m:e-p270:32:32-p271:32:32-p272:64:64-i64:64-f80:128-n8:16:32:64-S128"
target triple = "x86_64-pc-linux-gnu"

@.str = private unnamed_addr constant [6 x i8] c"%s %s\00", align 1
@.str.1 = private unnamed_addr constant [3 x i8] c"%d\00", align 1

; Function Attrs: noinline nounwind uwtable
define dso_local i32 @main() #0 {
  %1 = alloca i32, align 4
  %2 = alloca i32, align 4
  %3 = alloca i32, align 4
  %4 = alloca i32, align 4
  %5 = alloca i32, align 4
  %6 = alloca i32, align 4
  %7 = alloca i32, align 4
  %8 = alloca [50 x i8], align 16
  %9 = alloca [50 x i8], align 16
  store i32 0, i32* %1, align 4
  %10 = getelementptr inbounds [50 x i8], [50 x i8]* %8, i64 0, i64 0
  %11 = getelementptr inbounds [50 x i8], [50 x i8]* %9, i64 0, i64 0
  %12 = call i32 (i8*, ...) @__isoc99_scanf(i8* getelementptr inbounds ([6 x i8], [6 x i8]* @.str, i64 0, i64 0), i8* %10, i8* %11)
  store i32 0, i32* %2, align 4
  br label %13

13:                                               ; preds = %84, %0
  store i32 0, i32* %3, align 4
  br label %14

14:                                               ; preds = %71, %13
  %15 = load i32, i32* %2, align 4
  %16 = sext i32 %15 to i64
  %17 = getelementptr inbounds [50 x i8], [50 x i8]* %8, i64 0, i64 %16
  %18 = load i8, i8* %17, align 1
  %19 = sext i8 %18 to i32
  %20 = load i32, i32* %3, align 4
  %21 = sext i32 %20 to i64
  %22 = getelementptr inbounds [50 x i8], [50 x i8]* %9, i64 0, i64 %21
  %23 = load i8, i8* %22, align 1
  %24 = sext i8 %23 to i32
  %25 = icmp eq i32 %19, %24
  br i1 %25, label %26, label %60

26:                                               ; preds = %14
  %27 = load i32, i32* %3, align 4
  store i32 %27, i32* %7, align 4
  %28 = load i32, i32* %2, align 4
  store i32 %28, i32* %5, align 4
  %29 = load i32, i32* %3, align 4
  store i32 %29, i32* %6, align 4
  %30 = load i32, i32* %2, align 4
  store i32 %30, i32* %5, align 4
  %31 = load i32, i32* %3, align 4
  store i32 %31, i32* %6, align 4
  br label %32

32:                                               ; preds = %58, %26
  %33 = load i32, i32* %5, align 4
  %34 = sext i32 %33 to i64
  %35 = getelementptr inbounds [50 x i8], [50 x i8]* %8, i64 0, i64 %34
  %36 = load i8, i8* %35, align 1
  %37 = sext i8 %36 to i32
  %38 = load i32, i32* %6, align 4
  %39 = sext i32 %38 to i64
  %40 = getelementptr inbounds [50 x i8], [50 x i8]* %9, i64 0, i64 %39
  %41 = load i8, i8* %40, align 1
  %42 = sext i8 %41 to i32
  %43 = icmp eq i32 %37, %42
  br i1 %43, label %44, label %49

44:                                               ; preds = %32
  %45 = load i32, i32* %5, align 4
  %46 = add nsw i32 %45, 1
  store i32 %46, i32* %5, align 4
  %47 = load i32, i32* %6, align 4
  %48 = add nsw i32 %47, 1
  store i32 %48, i32* %6, align 4
  br label %49

49:                                               ; preds = %44, %32
  %50 = load i32, i32* %5, align 4
  %51 = load i32, i32* %2, align 4
  %52 = sub nsw i32 %50, %51
  %53 = sext i32 %52 to i64
  %54 = getelementptr inbounds [50 x i8], [50 x i8]* %8, i64 0, i64 0
  %55 = call i64 @strlen(i8* %54) #3
  %56 = icmp eq i64 %53, %55
  br i1 %56, label %57, label %58

57:                                               ; preds = %49
  br label %59

58:                                               ; preds = %49
  br label %32

59:                                               ; preds = %57
  br label %61

60:                                               ; preds = %14
  br label %71

61:                                               ; preds = %59
  %62 = load i32, i32* %5, align 4
  %63 = load i32, i32* %2, align 4
  %64 = sub nsw i32 %62, %63
  %65 = sext i32 %64 to i64
  %66 = getelementptr inbounds [50 x i8], [50 x i8]* %8, i64 0, i64 0
  %67 = call i64 @strlen(i8* %66) #3
  %68 = icmp eq i64 %65, %67
  br i1 %68, label %69, label %70

69:                                               ; preds = %61
  br label %74

70:                                               ; preds = %61
  br label %71

71:                                               ; preds = %70, %60
  %72 = load i32, i32* %3, align 4
  %73 = add nsw i32 %72, 1
  store i32 %73, i32* %3, align 4
  br label %14

74:                                               ; preds = %69
  %75 = load i32, i32* %5, align 4
  %76 = load i32, i32* %2, align 4
  %77 = sub nsw i32 %75, %76
  %78 = sext i32 %77 to i64
  %79 = getelementptr inbounds [50 x i8], [50 x i8]* %8, i64 0, i64 0
  %80 = call i64 @strlen(i8* %79) #3
  %81 = icmp eq i64 %78, %80
  br i1 %81, label %82, label %83

82:                                               ; preds = %74
  br label %87

83:                                               ; preds = %74
  br label %84

84:                                               ; preds = %83
  %85 = load i32, i32* %2, align 4
  %86 = add nsw i32 %85, 1
  store i32 %86, i32* %2, align 4
  br label %13

87:                                               ; preds = %82
  %88 = load i32, i32* %7, align 4
  %89 = call i32 (i8*, ...) @printf(i8* getelementptr inbounds ([3 x i8], [3 x i8]* @.str.1, i64 0, i64 0), i32 %88)
  %90 = load i32, i32* %1, align 4
  ret i32 %90
}

declare dso_local i32 @__isoc99_scanf(i8*, ...) #1

; Function Attrs: nounwind readonly
declare dso_local i64 @strlen(i8*) #2

declare dso_local i32 @printf(i8*, ...) #1


!llvm.module.flags = !{!0}
!llvm.ident = !{!1}

!0 = !{i32 1, !"wchar_size", i32 4}
!1 = !{!"clang version 10.0.0-4ubuntu1 "}
